; Function Attrs: nounwind uwtable
define void @lv_arc_rotate_obj_to_angle(ptr noundef %0, ptr noundef %1, i32 noundef %2) local_unnamed_addr #0 {
  %4 = alloca %struct.lv_point_t, align 4
  %5 = alloca i32, align 4
  %.not = icmp eq ptr %0, null
  br i1 %.not, label %.preheader, label %6

.preheader:                                       ; preds = %3, %.preheader
  br label %.preheader

6:                                                ; preds = %3
  %.not20 = icmp eq ptr %1, null
  br i1 %.not20, label %.preheader23, label %7

.preheader23:                                     ; preds = %6, %.preheader23
  br label %.preheader23

7:                                                ; preds = %6
  tail call void @lv_obj_update_layout(ptr noundef nonnull %0) #7
  call void @llvm.lifetime.start.p0(i64 8, ptr nonnull %4) #7
  call void @llvm.lifetime.start.p0(i64 4, ptr nonnull %5) #7
  call fastcc void @get_center(ptr noundef nonnull %0, ptr noundef %4, ptr noundef %5)
  %8 = tail call ptr @lv_obj_get_style_prop(ptr noundef nonnull %0, i32 noundef 131072, i8 noundef zeroext 80) #7
  %9 = ptrtoint ptr %8 to i64
  %.sroa.0.0.extract.trunc.i = trunc i64 %9 to i32
  %.neg.neg = sdiv i32 %.sroa.0.0.extract.trunc.i, 2
  %10 = load i32, ptr %5, align 4, !tbaa !30
  %11 = add i32 %10, %2
  %.neg24 = sub i32 %.neg.neg, %11
  tail call void @lv_obj_align_to(ptr noundef nonnull %1, ptr noundef nonnull %0, i32 noundef 9, i32 noundef 0, i32 noundef %.neg24) #7
  tail call void @lv_obj_update_layout(ptr noundef nonnull %0) #7
  %12 = getelementptr inbounds nuw i8, ptr %0, i64 64
  %13 = load i32, ptr %12, align 8, !tbaa !3
  %14 = sitofp i32 %13 to float
  %15 = getelementptr inbounds nuw i8, ptr %0, i64 96
  %16 = load i8, ptr %15, align 8
  %17 = lshr i8 %16, 1
  %18 = and i8 %17, 3
  switch i8 %18, label %default.unreachable [
    i8 0, label %19
    i8 2, label %23
    i8 1, label %27
    i8 3, label %get_angle.exit
  ]

19:                                               ; preds = %7
  %20 = getelementptr inbounds nuw i8, ptr %0, i64 72
  %21 = load float, ptr %20, align 8, !tbaa !20
  %22 = fadd float %21, %14
  br label %get_angle.exit

23:                                               ; preds = %7
  %24 = getelementptr inbounds nuw i8, ptr %0, i64 68
  %25 = load float, ptr %24, align 4, !tbaa !19
  %26 = fadd float %25, %14
  br label %get_angle.exit

27:                                               ; preds = %7
  %28 = getelementptr inbounds nuw i8, ptr %0, i64 80
  %29 = load float, ptr %28, align 8, !tbaa !18
  %30 = getelementptr inbounds nuw i8, ptr %0, i64 76
  %31 = load float, ptr %30, align 4, !tbaa !17
  %32 = fcmp olt float %29, %31
  %33 = fadd float %29, 3.600000e+02
  %.031.i = select i1 %32, float %33, float %29
  %34 = getelementptr inbounds nuw i8, ptr %0, i64 72
  %35 = load float, ptr %34, align 8, !tbaa !20
  %36 = getelementptr inbounds nuw i8, ptr %0, i64 68
  %37 = load float, ptr %36, align 4, !tbaa !19
  %38 = fadd float %31, %.031.i
  %39 = fptosi float %38 to i32
  %40 = sdiv i32 %39, 2
  %41 = sitofp i32 %40 to float
  %42 = fcmp olt float %37, %41
  br i1 %42, label %43, label %45

43:                                               ; preds = %27
  %44 = fadd float %37, %14
  br label %get_angle.exit

45:                                               ; preds = %27
  %46 = fcmp olt float %35, %37
  %47 = fadd float %35, 3.600000e+02
  %.030.i = select i1 %46, float %47, float %35
  %48 = fcmp ogt float %.030.i, %41
  br i1 %48, label %49, label %51

49:                                               ; preds = %45
  %50 = fadd float %35, %14
  br label %get_angle.exit

51:                                               ; preds = %45
  %52 = fadd float %14, %41
  br label %get_angle.exit

default.unreachable:                              ; preds = %7
  unreachable

get_angle.exit:                                   ; preds = %7, %19, %23, %43, %49, %51
  %.0.i = phi float [ %22, %19 ], [ %26, %23 ], [ %14, %7 ], [ %44, %43 ], [ %50, %49 ], [ %52, %51 ]
  %53 = fptosi float %.0.i to i32
  %54 = getelementptr inbounds nuw i8, ptr %1, i64 40
  %55 = load i32, ptr %54, align 8, !tbaa !61
  %56 = load i32, ptr %4, align 4, !tbaa !27
  %.neg21 = sub nsw i32 %56, %55
  %57 = getelementptr inbounds nuw i8, ptr %1, i64 44
  %58 = load i32, ptr %57, align 4, !tbaa !62
  %59 = getelementptr inbounds nuw i8, ptr %4, i64 4
  %60 = load i32, ptr %59, align 4, !tbaa !29
  %.neg22 = sub nsw i32 %60, %58
  tail call void @lv_obj_set_style_transform_pivot_x(ptr noundef nonnull %1, i32 noundef %.neg21, i32 noundef 0) #7
  tail call void @lv_obj_set_style_transform_pivot_y(ptr noundef nonnull %1, i32 noundef %.neg22, i32 noundef 0) #7
  %61 = mul nsw i32 %53, 10
  %62 = add nsw i32 %61, 900
  tail call void @lv_obj_set_style_transform_rotation(ptr noundef nonnull %1, i32 noundef %62, i32 noundef 0) #7
  call void @llvm.lifetime.end.p0(i64 4, ptr nonnull %5) #7
  call void @llvm.lifetime.end.p0(i64 8, ptr nonnull %4) #7
  ret void
}